target datalayout = "e-m:e-p270:32:32-p271:32:32-p272:64:64-i64:64-i128:128-f80:128-n8:16:32:64-S128"
target triple = "x86_64-pc-linux-gnu"

%"class.google::protobuf::internal::LogMessage" = type { i32, ptr, i32, %"class.std::__cxx11::basic_string" }
%"class.std::__cxx11::basic_string" = type { %"struct.std::__cxx11::basic_string<char>::_Alloc_hider", i64, %union.anon }
%"struct.std::__cxx11::basic_string<char>::_Alloc_hider" = type { ptr }
%union.anon = type { i64, [8 x i8] }
%"class.google::protobuf::internal::LogFinisher" = type { i8 }

@.str.10 = private unnamed_addr constant [116 x i8] c"generated/home/dtcxzyw/WorkSpace/Projects/compilers/llvm-opt-benchmark/bench/ncnn/bench_build/tools/onnx/onnx.pb.cc\00", align 1
@.str.16 = private unnamed_addr constant [34 x i8] c"CHECK failed: (&from) != (this): \00", align 1

; Function Attrs: mustprogress nounwind uwtable
define linkonce_odr dso_local noundef ptr @_ZN6google8protobuf22DynamicCastToGeneratedIN4onnx9TypeProtoEEEPKT_PKNS0_7MessageE(ptr noundef %0) #5 comdat {
  %2 = alloca ptr, align 8
  %3 = alloca ptr, align 8
  %4 = alloca ptr, align 8
  store ptr %0, ptr %2, align 8, !tbaa !45
  call void @llvm.lifetime.start.p0(i64 8, ptr %3) #3
  store ptr @_ZN4onnx9TypeProto16default_instanceEv, ptr %3, align 8, !tbaa !4
  call void @llvm.lifetime.start.p0(i64 8, ptr %4) #3
  store ptr null, ptr %4, align 8, !tbaa !45
  %5 = load ptr, ptr %2, align 8, !tbaa !45
  %6 = icmp eq ptr %5, null
  br i1 %6, label %10, label %7

7:                                                ; preds = %1
  %8 = load ptr, ptr %5, align 8, !tbaa !43
  %9 = icmp eq ptr %8, getelementptr inbounds inrange(-16, 160) ({ [22 x ptr] }, ptr @_ZTVN4onnx9TypeProtoE, i32 0, i32 0, i32 2)
  br i1 %9, label %11, label %10

10:                                               ; preds = %7, %1
  br label %11

11:                                               ; preds = %10, %7
  %12 = phi ptr [ %5, %7 ], [ null, %10 ]
  call void @llvm.lifetime.end.p0(i64 8, ptr %4) #3
  call void @llvm.lifetime.end.p0(i64 8, ptr %3) #3
  ret ptr %12
}

; Function Attrs: mustprogress uwtable
define dso_local void @_ZN4onnx9TypeProto9MergeFromERKN6google8protobuf7MessageE(ptr noundef nonnull align 8 dereferenceable(48) %0, ptr noundef nonnull align 8 dereferenceable(16) %1) unnamed_addr #4 align 2 personality ptr @__gxx_personality_v0 {
  %3 = alloca ptr, align 8
  %4 = alloca ptr, align 8
  %5 = alloca %"class.google::protobuf::internal::LogMessage", align 8
  %6 = alloca i1, align 1
  %7 = alloca i1, align 1
  %8 = alloca ptr, align 8
  %9 = alloca i32, align 4
  %10 = alloca %"class.google::protobuf::internal::LogFinisher", align 1
  %11 = alloca ptr, align 8
  store ptr %0, ptr %3, align 8, !tbaa !198
  store ptr %1, ptr %4, align 8, !tbaa !45
  %12 = load ptr, ptr %3, align 8
  br label %13

13:                                               ; preds = %28, %2
  br i1 false, label %14, label %44

14:                                               ; preds = %13
  %15 = load ptr, ptr %4, align 8, !tbaa !45
  %16 = icmp ne ptr %15, %12
  store i1 false, ptr %6, align 1
  store i1 false, ptr %7, align 1
  call void @llvm.lifetime.start.p0(i64 1, ptr %10) #3
  br i1 %16, label %17, label %18

17:                                               ; preds = %14
  br label %22

18:                                               ; preds = %14
  call void @llvm.lifetime.start.p0(i64 56, ptr %5) #3
  store i1 true, ptr %6, align 1
  call void @_ZN6google8protobuf8internal10LogMessageC1ENS0_8LogLevelEPKci(ptr noundef nonnull align 8 dereferenceable(56) %5, i32 noundef 3, ptr noundef @.str.10, i32 noundef 5868)
  store i1 true, ptr %7, align 1
  %19 = invoke noundef nonnull align 8 dereferenceable(56) ptr @_ZN6google8protobuf8internal10LogMessagelsEPKc(ptr noundef nonnull align 8 dereferenceable(56) %5, ptr noundef @.str.16)
          to label %20 unwind label %29

20:                                               ; preds = %18
  invoke void @_ZN6google8protobuf8internal11LogFinisheraSERNS1_10LogMessageE(ptr noundef nonnull align 1 dereferenceable(1) %10, ptr noundef nonnull align 8 dereferenceable(56) %19)
          to label %21 unwind label %33

21:                                               ; preds = %20
  br label %22

22:                                               ; preds = %21, %17
  call void @llvm.lifetime.end.p0(i64 1, ptr %10) #3
  %23 = load i1, ptr %7, align 1
  br i1 %23, label %24, label %25

24:                                               ; preds = %22
  call void @_ZN6google8protobuf8internal10LogMessageD1Ev(ptr noundef nonnull align 8 dereferenceable(56) %5) #3
  br label %25

25:                                               ; preds = %24, %22
  %26 = load i1, ptr %6, align 1
  br i1 %26, label %27, label %28

27:                                               ; preds = %25
  call void @llvm.lifetime.end.p0(i64 56, ptr %5) #3
  br label %28

28:                                               ; preds = %27, %25
  br label %13, !llvm.loop !404

29:                                               ; preds = %18
  %30 = landingpad { ptr, i32 }
          cleanup
  %31 = extractvalue { ptr, i32 } %30, 0
  store ptr %31, ptr %8, align 8
  %32 = extractvalue { ptr, i32 } %30, 1
  store i32 %32, ptr %9, align 4
  br label %37

33:                                               ; preds = %20
  %34 = landingpad { ptr, i32 }
          cleanup
  %35 = extractvalue { ptr, i32 } %34, 0
  store ptr %35, ptr %8, align 8
  %36 = extractvalue { ptr, i32 } %34, 1
  store i32 %36, ptr %9, align 4
  call void @llvm.lifetime.end.p0(i64 1, ptr %10) #3
  br label %37

37:                                               ; preds = %33, %29
  %38 = load i1, ptr %7, align 1
  br i1 %38, label %39, label %40

39:                                               ; preds = %37
  call void @_ZN6google8protobuf8internal10LogMessageD1Ev(ptr noundef nonnull align 8 dereferenceable(56) %5) #3
  br label %40

40:                                               ; preds = %39, %37
  %41 = load i1, ptr %6, align 1
  br i1 %41, label %42, label %43

42:                                               ; preds = %40
  call void @llvm.lifetime.end.p0(i64 56, ptr %5) #3
  br label %43

43:                                               ; preds = %42, %40
  br label %54

44:                                               ; preds = %13
  call void @llvm.lifetime.start.p0(i64 8, ptr %11) #3
  %45 = load ptr, ptr %4, align 8, !tbaa !45
  %46 = call noundef ptr @_ZN6google8protobuf22DynamicCastToGeneratedIN4onnx9TypeProtoEEEPKT_PKNS0_7MessageE(ptr noundef %45)
  store ptr %46, ptr %11, align 8, !tbaa !198
  %47 = load ptr, ptr %11, align 8, !tbaa !198
  %48 = icmp eq ptr %47, null
  br i1 %48, label %49, label %51

49:                                               ; preds = %44
  %50 = load ptr, ptr %4, align 8, !tbaa !45
  call void @_ZN6google8protobuf8internal13ReflectionOps5MergeERKNS0_7MessageEPS3_(ptr noundef nonnull align 8 dereferenceable(16) %50, ptr noundef %12)
  br label %53

51:                                               ; preds = %44
  %52 = load ptr, ptr %11, align 8, !tbaa !198
  call void @_ZN4onnx9TypeProto9MergeFromERKS0_(ptr noundef nonnull align 8 dereferenceable(48) %12, ptr noundef nonnull align 8 dereferenceable(48) %52)
  br label %53

53:                                               ; preds = %51, %49
  call void @llvm.lifetime.end.p0(i64 8, ptr %11) #3
  ret void

54:                                               ; preds = %43
  %55 = load ptr, ptr %8, align 8
  %56 = load i32, ptr %9, align 4
  %57 = insertvalue { ptr, i32 } poison, ptr %55, 0
  %58 = insertvalue { ptr, i32 } %57, i32 %56, 1
  resume { ptr, i32 } %58
}